target datalayout = "e-m:e-p270:32:32-p271:32:32-p272:64:64-i64:64-i128:128-f80:128-n8:16:32:64-S128"
target triple = "x86_64-pc-linux-gnu"

%struct.rb_code_location_struct = type { %struct.rb_code_position_struct, %struct.rb_code_position_struct }
%struct.rb_code_position_struct = type { i32, i32 }
%struct.RNode = type { i64, %struct.rb_code_location_struct, i32 }

@.str.76 = private unnamed_addr constant [20 x i8] c"unexpected node: %s\00", align 1

; Function Attrs: nounwind sspstrong uwtable
define internal i64 @get_string_value(ptr noundef %0) #0 {
  %2 = alloca i64, align 8
  %3 = alloca ptr, align 8
  store ptr %0, ptr %3, align 8, !tbaa !73
  %4 = load ptr, ptr %3, align 8, !tbaa !73
  %5 = getelementptr inbounds nuw %struct.RNode, ptr %4, i32 0, i32 0
  %6 = load i64, ptr %5, align 8, !tbaa !104
  %7 = and i64 %6, 32512
  %8 = lshr i64 %7, 8
  %9 = trunc i64 %8 to i32
  switch i32 %9, label %16 [
    i32 63, label %10
    i32 110, label %13
  ]

10:                                               ; preds = %1
  %11 = load ptr, ptr %3, align 8, !tbaa !73
  %12 = call i64 @rb_node_str_string_val(ptr noundef %11)
  store i64 %12, ptr %2, align 8
  br label %24

13:                                               ; preds = %1
  %14 = load ptr, ptr %3, align 8, !tbaa !73
  %15 = call i64 @rb_node_file_path_val(ptr noundef %14)
  store i64 %15, ptr %2, align 8
  br label %24

16:                                               ; preds = %1
  %17 = load ptr, ptr %3, align 8, !tbaa !73
  %18 = getelementptr inbounds nuw %struct.RNode, ptr %17, i32 0, i32 0
  %19 = load i64, ptr %18, align 8, !tbaa !104
  %20 = and i64 %19, 32512
  %21 = lshr i64 %20, 8
  %22 = trunc i64 %21 to i32
  %23 = call ptr @ruby_node_name(i32 noundef %22)
  call void (ptr, ...) @rb_bug(ptr noundef @.str.76, ptr noundef %23) #37
  unreachable

24:                                               ; preds = %13, %10
  %25 = load i64, ptr %2, align 8
  ret i64 %25
}