; Function Attrs: nounwind sspstrong uwtable
define internal fastcc i64 @get_string_value(ptr noundef %0) unnamed_addr #1 {
  %2 = load i64, ptr %0, align 8, !tbaa !169
  %3 = trunc i64 %2 to i32
  %4 = lshr i32 %3, 8
  %5 = and i32 %4, 127
  switch i32 %5, label %10 [
    i32 63, label %6
    i32 110, label %8
  ]

6:                                                ; preds = %1
  %7 = tail call i64 @rb_node_str_string_val(ptr noundef nonnull %0) #38
  br label %12

8:                                                ; preds = %1
  %9 = tail call i64 @rb_node_file_path_val(ptr noundef nonnull %0) #38
  br label %12

10:                                               ; preds = %1
  %11 = tail call ptr @ruby_node_name(i32 noundef %5) #38
  tail call void (ptr, ...) @rb_bug(ptr noundef nonnull @.str.76, ptr noundef %11) #39
  unreachable

12:                                               ; preds = %8, %6
  %.0 = phi i64 [ %9, %8 ], [ %7, %6 ]
  ret i64 %.0
}